target datalayout = "e-m:e-p270:32:32-p271:32:32-p272:64:64-i64:64-i128:128-f80:128-n8:16:32:64-S128"
target triple = "x86_64-pc-linux-gnu"

%"class.open3d::geometry::HalfEdgeTriangleMesh" = type { %"class.open3d::geometry::MeshBase", %"class.std::vector.16", %"class.std::vector", %"class.std::vector.21", %"class.std::vector.26" }
%"class.open3d::geometry::MeshBase" = type { %"class.open3d::geometry::Geometry3D", %"class.std::vector", %"class.std::vector", %"class.std::vector" }
%"class.open3d::geometry::Geometry3D" = type { %"class.open3d::geometry::Geometry" }
%"class.open3d::geometry::Geometry" = type { ptr, i32, i32, %"class.std::__cxx11::basic_string" }
%"class.std::__cxx11::basic_string" = type { %"struct.std::__cxx11::basic_string<char>::_Alloc_hider", i64, %union.anon }
%"struct.std::__cxx11::basic_string<char>::_Alloc_hider" = type { ptr }
%union.anon = type { i64, [8 x i8] }
%"class.std::vector.16" = type { %"struct.std::_Vector_base.17" }
%"struct.std::_Vector_base.17" = type { %"struct.std::_Vector_base<Eigen::Matrix<int, 3, 1>, std::allocator<Eigen::Matrix<int, 3, 1>>>::_Vector_impl" }
%"struct.std::_Vector_base<Eigen::Matrix<int, 3, 1>, std::allocator<Eigen::Matrix<int, 3, 1>>>::_Vector_impl" = type { %"struct.std::_Vector_base<Eigen::Matrix<int, 3, 1>, std::allocator<Eigen::Matrix<int, 3, 1>>>::_Vector_impl_data" }
%"struct.std::_Vector_base<Eigen::Matrix<int, 3, 1>, std::allocator<Eigen::Matrix<int, 3, 1>>>::_Vector_impl_data" = type { ptr, ptr, ptr }
%"class.std::vector" = type { %"struct.std::_Vector_base" }
%"struct.std::_Vector_base" = type { %"struct.std::_Vector_base<Eigen::Matrix<double, 3, 1>, std::allocator<Eigen::Matrix<double, 3, 1>>>::_Vector_impl" }
%"struct.std::_Vector_base<Eigen::Matrix<double, 3, 1>, std::allocator<Eigen::Matrix<double, 3, 1>>>::_Vector_impl" = type { %"struct.std::_Vector_base<Eigen::Matrix<double, 3, 1>, std::allocator<Eigen::Matrix<double, 3, 1>>>::_Vector_impl_data" }
%"struct.std::_Vector_base<Eigen::Matrix<double, 3, 1>, std::allocator<Eigen::Matrix<double, 3, 1>>>::_Vector_impl_data" = type { ptr, ptr, ptr }
%"class.std::vector.21" = type { %"struct.std::_Vector_base.22" }
%"struct.std::_Vector_base.22" = type { %"struct.std::_Vector_base<open3d::geometry::HalfEdgeTriangleMesh::HalfEdge, std::allocator<open3d::geometry::HalfEdgeTriangleMesh::HalfEdge>>::_Vector_impl" }
%"struct.std::_Vector_base<open3d::geometry::HalfEdgeTriangleMesh::HalfEdge, std::allocator<open3d::geometry::HalfEdgeTriangleMesh::HalfEdge>>::_Vector_impl" = type { %"struct.std::_Vector_base<open3d::geometry::HalfEdgeTriangleMesh::HalfEdge, std::allocator<open3d::geometry::HalfEdgeTriangleMesh::HalfEdge>>::_Vector_impl_data" }
%"struct.std::_Vector_base<open3d::geometry::HalfEdgeTriangleMesh::HalfEdge, std::allocator<open3d::geometry::HalfEdgeTriangleMesh::HalfEdge>>::_Vector_impl_data" = type { ptr, ptr, ptr }
%"class.std::vector.26" = type { %"struct.std::_Vector_base.27" }
%"struct.std::_Vector_base.27" = type { %"struct.std::_Vector_base<std::vector<int>, std::allocator<std::vector<int>>>::_Vector_impl" }
%"struct.std::_Vector_base<std::vector<int>, std::allocator<std::vector<int>>>::_Vector_impl" = type { %"struct.std::_Vector_base<std::vector<int>, std::allocator<std::vector<int>>>::_Vector_impl_data" }
%"struct.std::_Vector_base<std::vector<int>, std::allocator<std::vector<int>>>::_Vector_impl_data" = type { ptr, ptr, ptr }

; Function Attrs: mustprogress nounwind ssp uwtable
define linkonce_odr noundef i64 @_ZNKSt6vectorIS_IiSaIiEESaIS1_EE4sizeEv(ptr noundef nonnull align 8 dereferenceable(24) %0) #4 comdat align 2 {
  %2 = alloca ptr, align 8
  store ptr %0, ptr %2, align 8, !tbaa !49
  %3 = load ptr, ptr %2, align 8
  %4 = getelementptr inbounds nuw %"struct.std::_Vector_base.27", ptr %3, i32 0, i32 0
  %5 = getelementptr inbounds nuw %"struct.std::_Vector_base<std::vector<int>, std::allocator<std::vector<int>>>::_Vector_impl_data", ptr %4, i32 0, i32 1
  %6 = load ptr, ptr %5, align 8, !tbaa !62
  %7 = getelementptr inbounds nuw %"struct.std::_Vector_base.27", ptr %3, i32 0, i32 0
  %8 = getelementptr inbounds nuw %"struct.std::_Vector_base<std::vector<int>, std::allocator<std::vector<int>>>::_Vector_impl_data", ptr %7, i32 0, i32 0
  %9 = load ptr, ptr %8, align 8, !tbaa !51
  %10 = ptrtoint ptr %6 to i64
  %11 = ptrtoint ptr %9 to i64
  %12 = sub i64 %10, %11
  %13 = sdiv exact i64 %12, 24
  ret i64 %13
}

; Function Attrs: mustprogress nounwind ssp uwtable
define linkonce_odr noundef i64 @_ZNKSt6vectorIN5Eigen6MatrixIdLi3ELi1ELi0ELi3ELi1EEESaIS2_EE4sizeEv(ptr noundef nonnull align 8 dereferenceable(24) %0) #4 comdat align 2 {
  %2 = alloca ptr, align 8
  store ptr %0, ptr %2, align 8, !tbaa !81
  %3 = load ptr, ptr %2, align 8
  %4 = getelementptr inbounds nuw %"struct.std::_Vector_base", ptr %3, i32 0, i32 0
  %5 = getelementptr inbounds nuw %"struct.std::_Vector_base<Eigen::Matrix<double, 3, 1>, std::allocator<Eigen::Matrix<double, 3, 1>>>::_Vector_impl_data", ptr %4, i32 0, i32 1
  %6 = load ptr, ptr %5, align 8, !tbaa !83
  %7 = getelementptr inbounds nuw %"struct.std::_Vector_base", ptr %3, i32 0, i32 0
  %8 = getelementptr inbounds nuw %"struct.std::_Vector_base<Eigen::Matrix<double, 3, 1>, std::allocator<Eigen::Matrix<double, 3, 1>>>::_Vector_impl_data", ptr %7, i32 0, i32 0
  %9 = load ptr, ptr %8, align 8, !tbaa !86
  %10 = ptrtoint ptr %6 to i64
  %11 = ptrtoint ptr %9 to i64
  %12 = sub i64 %10, %11
  %13 = sdiv exact i64 %12, 24
  ret i64 %13
}

; Function Attrs: mustprogress nounwind ssp uwtable
define linkonce_odr noundef i64 @_ZNKSt6vectorIN6open3d8geometry20HalfEdgeTriangleMesh8HalfEdgeESaIS3_EE4sizeEv(ptr noundef nonnull align 8 dereferenceable(24) %0) #4 comdat align 2 {
  %2 = alloca ptr, align 8
  store ptr %0, ptr %2, align 8, !tbaa !45
  %3 = load ptr, ptr %2, align 8
  %4 = getelementptr inbounds nuw %"struct.std::_Vector_base.22", ptr %3, i32 0, i32 0
  %5 = getelementptr inbounds nuw %"struct.std::_Vector_base<open3d::geometry::HalfEdgeTriangleMesh::HalfEdge, std::allocator<open3d::geometry::HalfEdgeTriangleMesh::HalfEdge>>::_Vector_impl_data", ptr %4, i32 0, i32 1
  %6 = load ptr, ptr %5, align 8, !tbaa !54
  %7 = getelementptr inbounds nuw %"struct.std::_Vector_base.22", ptr %3, i32 0, i32 0
  %8 = getelementptr inbounds nuw %"struct.std::_Vector_base<open3d::geometry::HalfEdgeTriangleMesh::HalfEdge, std::allocator<open3d::geometry::HalfEdgeTriangleMesh::HalfEdge>>::_Vector_impl_data", ptr %7, i32 0, i32 0
  %9 = load ptr, ptr %8, align 8, !tbaa !47
  %10 = ptrtoint ptr %6 to i64
  %11 = ptrtoint ptr %9 to i64
  %12 = sub i64 %10, %11
  %13 = sdiv exact i64 %12, 20
  ret i64 %13
}

; Function Attrs: mustprogress nounwind ssp uwtable
define noundef zeroext i1 @_ZNK6open3d8geometry20HalfEdgeTriangleMesh12HasHalfEdgesEv(ptr noundef nonnull align 8 dereferenceable(216) %0) #4 align 2 {
  %2 = alloca ptr, align 8
  store ptr %0, ptr %2, align 8, !tbaa !4
  %3 = load ptr, ptr %2, align 8
  %4 = getelementptr inbounds nuw %"class.open3d::geometry::HalfEdgeTriangleMesh", ptr %3, i32 0, i32 3
  %5 = call noundef i64 @_ZNKSt6vectorIN6open3d8geometry20HalfEdgeTriangleMesh8HalfEdgeESaIS3_EE4sizeEv(ptr noundef nonnull align 8 dereferenceable(24) %4) #30
  %6 = icmp ugt i64 %5, 0
  br i1 %6, label %7, label %13

7:                                                ; preds = %1
  %8 = getelementptr inbounds nuw %"class.open3d::geometry::MeshBase", ptr %3, i32 0, i32 1
  %9 = call noundef i64 @_ZNKSt6vectorIN5Eigen6MatrixIdLi3ELi1ELi0ELi3ELi1EEESaIS2_EE4sizeEv(ptr noundef nonnull align 8 dereferenceable(24) %8) #30
  %10 = getelementptr inbounds nuw %"class.open3d::geometry::HalfEdgeTriangleMesh", ptr %3, i32 0, i32 4
  %11 = call noundef i64 @_ZNKSt6vectorIS_IiSaIiEESaIS1_EE4sizeEv(ptr noundef nonnull align 8 dereferenceable(24) %10) #30
  %12 = icmp eq i64 %9, %11
  br label %13

13:                                               ; preds = %7, %1
  %14 = phi i1 [ false, %1 ], [ %12, %7 ]
  ret i1 %14
}