; Function Attrs: mustprogress nofree norecurse nosync nounwind ssp willreturn memory(argmem: read) uwtable
define noundef zeroext i1 @_ZNK6open3d8geometry20HalfEdgeTriangleMesh12HasHalfEdgesEv(ptr noundef nonnull readonly align 8 captures(none) dereferenceable(216) %0) local_unnamed_addr #10 align 2 {
  %2 = getelementptr inbounds nuw i8, ptr %0, i64 168
  %3 = getelementptr inbounds nuw i8, ptr %0, i64 176
  %4 = load ptr, ptr %3, align 8, !tbaa !39
  %5 = load ptr, ptr %2, align 8, !tbaa !20
  %.not = icmp eq ptr %4, %5
  br i1 %.not, label %22, label %6

6:                                                ; preds = %1
  %7 = getelementptr inbounds nuw i8, ptr %0, i64 48
  %8 = getelementptr inbounds nuw i8, ptr %0, i64 56
  %9 = load ptr, ptr %8, align 8, !tbaa !49
  %10 = load ptr, ptr %7, align 8, !tbaa !24
  %11 = ptrtoint ptr %9 to i64
  %12 = ptrtoint ptr %10 to i64
  %13 = sub i64 %11, %12
  %14 = getelementptr inbounds nuw i8, ptr %0, i64 192
  %15 = getelementptr inbounds nuw i8, ptr %0, i64 200
  %16 = load ptr, ptr %15, align 8, !tbaa !12
  %17 = load ptr, ptr %14, align 8, !tbaa !7
  %18 = ptrtoint ptr %16 to i64
  %19 = ptrtoint ptr %17 to i64
  %20 = sub i64 %18, %19
  %21 = icmp eq i64 %13, %20
  br label %22

22:                                               ; preds = %6, %1
  %23 = phi i1 [ false, %1 ], [ %21, %6 ]
  ret i1 %23
}